target datalayout = "e-m:e-p270:32:32-p271:32:32-p272:64:64-i64:64-i128:128-f80:128-n8:16:32:64-S128"
target triple = "x86_64-pc-linux-gnu"

%struct._php_conv = type { ptr, ptr }
%struct._php_conv_base64_encode = type { %struct._php_conv, ptr, i64, i64, i32, i32, i32, i32, [3 x i8] }

; Function Attrs: nounwind uwtable
define internal void @php_conv_base64_encode_dtor(ptr noundef %0) #0 {
  %2 = alloca ptr, align 8
  store ptr %0, ptr %2, align 8
  %3 = load ptr, ptr %2, align 8
  %4 = getelementptr inbounds %struct._php_conv_base64_encode, ptr %3, i32 0, i32 6
  %5 = load i32, ptr %4, align 8
  %6 = icmp ne i32 %5, 0
  br i1 %6, label %7, label %26

7:                                                ; preds = %1
  %8 = load ptr, ptr %2, align 8
  %9 = getelementptr inbounds %struct._php_conv_base64_encode, ptr %8, i32 0, i32 1
  %10 = load ptr, ptr %9, align 8
  %11 = icmp ne ptr %10, null
  br i1 %11, label %12, label %26

12:                                               ; preds = %7
  %13 = load ptr, ptr %2, align 8
  %14 = getelementptr inbounds %struct._php_conv_base64_encode, ptr %13, i32 0, i32 7
  %15 = load i32, ptr %14, align 4
  %16 = icmp ne i32 %15, 0
  br i1 %16, label %17, label %21

17:                                               ; preds = %12
  %18 = load ptr, ptr %2, align 8
  %19 = getelementptr inbounds %struct._php_conv_base64_encode, ptr %18, i32 0, i32 1
  %20 = load ptr, ptr %19, align 8
  call void @free(ptr noundef %20) #11
  br label %25

21:                                               ; preds = %12
  %22 = load ptr, ptr %2, align 8
  %23 = getelementptr inbounds %struct._php_conv_base64_encode, ptr %22, i32 0, i32 1
  %24 = load ptr, ptr %23, align 8
  call void @_efree(ptr noundef %24)
  br label %25

25:                                               ; preds = %21, %17
  br label %26

26:                                               ; preds = %25, %7, %1
  ret void
}